Certificate:
    Data:
        Version: 3 (0x2)
        Serial Number:
            11:00:27:b7:c0:55:51:76:dd:6f:fd:90:13:00:02:00:27:b7:c0
        Signature Algorithm: sha256WithRSAEncryption
        Issuer: DC=corp, DC=bancolombia, CN=ISSUINGBANCOLOMBIACA
        Validity
            Not Before: Dec 28 15:15:52 2023 GMT
            Not After : Dec 27 15:15:52 2024 GMT
        Subject: C=CO, ST=ANTIOQUIA, L=MEDELLIN, O=BANCOLOMBIA S.A., OU=VICEPRESIDENCIA DE TECNOLOGIA, CN=dpprod.apps.bancolombia.com
        Subject Public Key Info:
            Public Key Algorithm: rsaEncryption
                Public-Key: (2048 bit)
                Modulus:
                    00:96:a8:2d:2e:81:d2:2c:50:e2:67:fd:c7:a3:d7:
                    a9:47:0b:51:3c:eb:83:9e:e8:f6:8b:bd:5e:8a:2f:
                    b3:c2:06:88:30:f8:42:1b:f6:cb:e0:2c:4f:36:d9:
                    f8:98:48:c8:2a:0c:67:5b:f9:e0:f3:08:ec:8d:96:
                    e3:da:c2:3c:1c:f5:af:b2:f6:5b:f9:64:35:8a:95:
                    68:07:63:c7:e6:9e:e7:b9:8c:35:4d:41:21:d9:53:
                    54:4e:cd:9e:d5:07:f1:e9:9a:e5:82:93:53:e4:16:
                    09:df:10:df:28:62:38:ee:ae:73:42:62:97:6c:92:
                    6f:6c:f3:a7:a1:f8:c3:00:58:ce:b9:c7:b8:24:29:
                    50:38:87:7b:f5:7a:38:1f:75:35:95:6b:91:83:56:
                    8c:01:fd:e0:d4:ec:a4:70:8f:85:d9:3b:66:a9:1a:
                    d5:87:5c:38:d4:a4:98:95:2c:15:1a:bc:1f:45:5b:
                    fe:cf:bf:6d:7b:15:08:9d:04:ff:a6:b2:30:db:09:
                    14:c0:25:be:93:4b:00:f6:2f:7b:42:28:05:52:c9:
                    a9:34:ba:24:93:c7:5d:79:69:f4:5b:db:ba:9e:38:
                    a4:3c:86:ba:d8:2a:54:3f:5d:f3:c4:b1:67:2f:8b:
                    78:fa:a1:94:4b:02:e3:46:03:36:10:f7:0e:30:4e:
                    5c:51
                Exponent: 65537 (0x10001)
        X509v3 extensions:
            X509v3 Subject Alternative Name: 
                DNS:dpprod.apps.bancolombia.com
            X509v3 Subject Key Identifier: 
                54:73:19:15:1F:FB:9E:CE:FE:F7:B4:CF:FD:C7:84:89:BC:BF:2B:DA
            X509v3 Authority Key Identifier: 
                1E:B7:0D:EA:80:1D:16:BF:A8:6C:7A:7F:84:C5:8B:7B:AD:98:88:34
            X509v3 CRL Distribution Points: 
                Full Name:
                  URI:http://pki9.pki.bancolombia.com/CDP/ISSUINGBANCOLOMBIACA.crl
                  URI:ldap:///CN=ISSUINGBANCOLOMBIACA,CN=ADCS,CN=CDP,CN=Public%20Key%20Services,CN=Services,CN=Configuration,DC=bancolombia,DC=corp?certificateRevocationList?base?objectClass=cRLDistributionPoint
                  URI:http://pki10.pki.bancolombia.com/CDP/ISSUINGBANCOLOMBIACA.crl
                  URI:http://pki14.pki.bancolombia.com/CDP/ISSUINGBANCOLOMBIACA.crl
                  URI:http://pkicloud.bancolombia.com/crl/ISSUINGBANCOLOMBIACA.crl
            Authority Information Access: 
                CA Issuers - URI:http://pki9.pki.bancolombia.com/AIA/ISSUINGBANCOLOMBIACA(2).crt
                CA Issuers - URI:ldap:///CN=ISSUINGBANCOLOMBIACA,CN=AIA,CN=Public%20Key%20Services,CN=Services,CN=Configuration,DC=bancolombia,DC=corp?cACertificate?base?objectClass=certificationAuthority
                CA Issuers - URI:http://pki10.pki.bancolombia.com/AIA/ISSUINGBANCOLOMBIACA(2).crt
                CA Issuers - URI:http://pki14.pki.bancolombia.com/AIA/ISSUINGBANCOLOMBIACA(2).crt
                OCSP - URI:http://ocsp.pki.bancolombia.com/ocsp
                OCSP - URI:http://pki9ocsp.pki.bancolombia.com/ocsp
            X509v3 Key Usage: 
                Digital Signature, Key Encipherment
            Microsoft certificate template: 
                0..&+.....7.....:../...4.............>......f...
            X509v3 Extended Key Usage: 
                TLS Web Server Authentication, TLS Web Client Authentication
            Microsoft Application Policies Extension: 
                0.0
..+.......0
..+.......
    Signature Algorithm: sha256WithRSAEncryption
    Signature Value:
        1a:8f:f7:f7:67:48:0e:f6:3a:20:ec:58:88:08:d1:1b:4e:2e:
        ae:11:48:93:83:cf:a3:1d:eb:85:bc:77:26:d7:72:71:04:0d:
        f7:17:1b:2c:fc:50:a9:de:c0:23:92:78:4d:72:80:bb:31:66:
        59:47:63:e4:1c:8f:5b:48:73:56:78:89:7d:20:e3:59:90:89:
        f9:b8:33:e0:35:9c:2a:d2:de:24:0e:4c:3c:89:e9:a9:5c:f8:
        50:83:4a:c0:2e:f9:05:8a:b6:8e:55:28:94:b9:16:25:8f:55:
        26:d0:0a:38:0e:0c:1a:23:7c:a6:46:7c:b7:30:22:14:78:39:
        bf:ed:16:74:a4:10:4b:a0:7d:3a:94:f0:f1:5f:94:ea:a0:42:
        ab:2e:98:ab:90:87:3c:7b:49:36:e5:19:ac:f8:1f:a2:1d:13:
        fa:ed:23:73:e0:d1:f1:55:6a:ef:de:e4:76:5d:bc:3c:47:01:
        f1:65:87:9a:4c:87:93:a8:09:b5:5f:75:d8:74:1c:d0:ff:c0:
        60:42:eb:f7:f1:6a:d4:50:fb:fb:93:c6:9a:ae:d1:b2:00:45:
        c2:e2:3a:0b:80:7d:07:1b:0a:57:bf:52:a3:a2:c0:46:70:c0:
        a0:0d:6d:ac:57:7b:23:dc:14:85:e6:f6:aa:3f:84:ef:61:37:
        78:85:f5:15
-----BEGIN CERTIFICATE-----
MIIIeDCCB2CgAwIBAgITEQAnt8BVUXbdb/2QEwACACe3wDANBgkqhkiG9w0BAQsF
ADBSMRQwEgYKCZImiZPyLGQBGRYEY29ycDEbMBkGCgmSJomT8ixkARkWC2JhbmNv
bG9tYmlhMR0wGwYDVQQDExRJU1NVSU5HQkFOQ09MT01CSUFDQTAeFw0yMzEyMjgx
NTE1NTJaFw0yNDEyMjcxNTE1NTJaMIGdMQswCQYDVQQGEwJDTzESMBAGA1UECBMJ
QU5USU9RVUlBMREwDwYDVQQHEwhNRURFTExJTjEZMBcGA1UEChMQQkFOQ09MT01C
SUEgUy5BLjEmMCQGA1UECxMdVklDRVBSRVNJREVOQ0lBIERFIFRFQ05PTE9HSUEx
JDAiBgNVBAMTG2RwcHJvZC5hcHBzLmJhbmNvbG9tYmlhLmNvbTCCASIwDQYJKoZI
hvcNAQEBBQADggEPADCCAQoCggEBAJaoLS6B0ixQ4mf9x6PXqUcLUTzrg57o9ou9
Xoovs8IGiDD4Qhv2y+AsTzbZ+JhIyCoMZ1v54PMI7I2W49rCPBz1r7L2W/lkNYqV
aAdjx+ae57mMNU1BIdlTVE7NntUH8ema5YKTU+QWCd8Q3yhiOO6uc0Jil2ySb2zz
p6H4wwBYzrnHuCQpUDiHe/V6OB91NZVrkYNWjAH94NTspHCPhdk7Zqka1YdcONSk
mJUsFRq8H0Vb/s+/bXsVCJ0E/6ayMNsJFMAlvpNLAPYve0IoBVLJqTS6JJPHXXlp
9Fvbup44pDyGutgqVD9d88SxZy+LePqhlEsC40YDNhD3DjBOXFECAwEAAaOCBPkw
ggT1MCYGA1UdEQQfMB2CG2RwcHJvZC5hcHBzLmJhbmNvbG9tYmlhLmNvbTAdBgNV
HQ4EFgQUVHMZFR/7ns7+97TP/ceEiby/K9owHwYDVR0jBBgwFoAUHrcN6oAdFr+o
bHp/hMWLe62YiDQwggHTBgNVHR8EggHKMIIBxjCCAcKgggG+oIIBuoY8aHR0cDov
L3BraTkucGtpLmJhbmNvbG9tYmlhLmNvbS9DRFAvSVNTVUlOR0JBTkNPTE9NQklB
Q0EuY3JshoG9bGRhcDovLy9DTj1JU1NVSU5HQkFOQ09MT01CSUFDQSxDTj1BRENT
LENOPUNEUCxDTj1QdWJsaWMlMjBLZXklMjBTZXJ2aWNlcyxDTj1TZXJ2aWNlcyxD
Tj1Db25maWd1cmF0aW9uLERDPWJhbmNvbG9tYmlhLERDPWNvcnA/Y2VydGlmaWNh
dGVSZXZvY2F0aW9uTGlzdD9iYXNlP29iamVjdENsYXNzPWNSTERpc3RyaWJ1dGlv
blBvaW50hj1odHRwOi8vcGtpMTAucGtpLmJhbmNvbG9tYmlhLmNvbS9DRFAvSVNT
VUlOR0JBTkNPTE9NQklBQ0EuY3Jshj1odHRwOi8vcGtpMTQucGtpLmJhbmNvbG9t
YmlhLmNvbS9DRFAvSVNTVUlOR0JBTkNPTE9NQklBQ0EuY3JshjxodHRwOi8vcGtp
Y2xvdWQuYmFuY29sb21iaWEuY29tL2NybC9JU1NVSU5HQkFOQ09MT01CSUFDQS5j
cmwwggIeBggrBgEFBQcBAQSCAhAwggIMMEsGCCsGAQUFBzAChj9odHRwOi8vcGtp
OS5wa2kuYmFuY29sb21iaWEuY29tL0FJQS9JU1NVSU5HQkFOQ09MT01CSUFDQSgy
KS5jcnQwgbgGCCsGAQUFBzAChoGrbGRhcDovLy9DTj1JU1NVSU5HQkFOQ09MT01C
SUFDQSxDTj1BSUEsQ049UHVibGljJTIwS2V5JTIwU2VydmljZXMsQ049U2Vydmlj
ZXMsQ049Q29uZmlndXJhdGlvbixEQz1iYW5jb2xvbWJpYSxEQz1jb3JwP2NBQ2Vy
dGlmaWNhdGU/YmFzZT9vYmplY3RDbGFzcz1jZXJ0aWZpY2F0aW9uQXV0aG9yaXR5
MEwGCCsGAQUFBzAChkBodHRwOi8vcGtpMTAucGtpLmJhbmNvbG9tYmlhLmNvbS9B
SUEvSVNTVUlOR0JBTkNPTE9NQklBQ0EoMikuY3J0MEwGCCsGAQUFBzAChkBodHRw
Oi8vcGtpMTQucGtpLmJhbmNvbG9tYmlhLmNvbS9BSUEvSVNTVUlOR0JBTkNPTE9N
QklBQ0EoMikuY3J0MDAGCCsGAQUFBzABhiRodHRwOi8vb2NzcC5wa2kuYmFuY29s
b21iaWEuY29tL29jc3AwNAYIKwYBBQUHMAGGKGh0dHA6Ly9wa2k5b2NzcC5wa2ku
YmFuY29sb21iaWEuY29tL29jc3AwCwYDVR0PBAQDAgWgMD0GCSsGAQQBgjcVBwQw
MC4GJisGAQQBgjcVCITd2jro4S+ByZ00hITvGoSmwxWBGITIxD6BweYTAgFmAgEQ
MB0GA1UdJQQWMBQGCCsGAQUFBwMBBggrBgEFBQcDAjAnBgkrBgEEAYI3FQoEGjAY
MAoGCCsGAQUFBwMBMAoGCCsGAQUFBwMCMA0GCSqGSIb3DQEBCwUAA4IBAQAaj/f3
Z0gO9jog7FiICNEbTi6uEUiTg8+jHeuFvHcm13JxBA33Fxss/FCp3sAjknhNcoC7
MWZZR2PkHI9bSHNWeIl9IONZkIn5uDPgNZwq0t4kDkw8iempXPhQg0rALvkFiraO
VSiUuRYlj1Um0Ao4DgwaI3ymRny3MCIUeDm/7RZ0pBBLoH06lPDxX5TqoEKrLpir
kIc8e0k25Rms+B+iHRP67SNz4NHxVWrv3uR2Xbw8RwHxZYeaTIeTqAm1X3XYdBzQ
/8BgQuv38WrUUPv7k8aartGyAEXC4joLgH0HGwpXv1KjosBGcMCgDW2sV3sj3BSF
5vaqP4TvYTd4hfUV
-----END CERTIFICATE-----
